; Function Attrs: mustprogress uwtable
define hidden noundef float @_ZN7datalog13mk_magic_sets16get_unbound_costEP3appRK8uint_set(ptr nocapture noundef nonnull readonly align 8 dereferenceable(184) %this, ptr nocapture noundef readonly %lit, ptr nocapture noundef nonnull readonly align 8 dereferenceable(8) %bound_vars) local_unnamed_addr #3 align 2 {
entry:
  %m_num_args.i = getelementptr inbounds i8, ptr %lit, i64 24
  %0 = load i32, ptr %m_num_args.i, align 8
  %cmp11.not = icmp eq i32 %0, 0
  br i1 %cmp11.not, label %for.end, label %for.body.lr.ph

for.body.lr.ph:                                   ; preds = %entry
  %m_decl.i = getelementptr inbounds i8, ptr %lit, i64 16
  %1 = load ptr, ptr %m_decl.i, align 8
  %m_args.i = getelementptr inbounds i8, ptr %lit, i64 32
  %m_context = getelementptr inbounds i8, ptr %this, i64 24
  %m_domain.i = getelementptr inbounds i8, ptr %1, i64 48
  %wide.trip.count = zext i32 %0 to i64
  br label %for.body

for.body:                                         ; preds = %for.body.lr.ph, %for.inc
  %indvars.iv = phi i64 [ 0, %for.body.lr.ph ], [ %indvars.iv.next, %for.inc ]
  %res.013 = phi float [ 1.000000e+00, %for.body.lr.ph ], [ %res.1, %for.inc ]
  %arrayidx.i = getelementptr inbounds [0 x ptr], ptr %m_args.i, i64 0, i64 %indvars.iv
  %2 = load ptr, ptr %arrayidx.i, align 8
  %m_kind.i.i = getelementptr inbounds i8, ptr %2, i64 4
  %bf.load.i.i = load i32, ptr %m_kind.i.i, align 4
  %bf.clear.i.i = and i32 %bf.load.i.i, 65535
  %cmp.i = icmp eq i32 %bf.clear.i.i, 1
  br i1 %cmp.i, label %land.lhs.true, label %for.inc

land.lhs.true:                                    ; preds = %for.body
  %m_idx.i = getelementptr inbounds i8, ptr %2, i64 16
  %3 = load i32, ptr %m_idx.i, align 8
  %shr.i = lshr i32 %3, 5
  %4 = load ptr, ptr %bound_vars, align 8
  %cmp.i.i = icmp eq ptr %4, null
  br i1 %cmp.i.i, label %if.then, label %_ZNK6vectorIjLb0EjE4sizeEv.exit.i

_ZNK6vectorIjLb0EjE4sizeEv.exit.i:                ; preds = %land.lhs.true
  %arrayidx.i.i = getelementptr inbounds i8, ptr %4, i64 -4
  %5 = load i32, ptr %arrayidx.i.i, align 4
  %cmp.i8 = icmp ult i32 %shr.i, %5
  br i1 %cmp.i8, label %_ZNK8uint_set8containsEj.exit, label %if.then

_ZNK8uint_set8containsEj.exit:                    ; preds = %_ZNK6vectorIjLb0EjE4sizeEv.exit.i
  %idxprom.i.i = zext nneg i32 %shr.i to i64
  %arrayidx.i3.i = getelementptr inbounds i32, ptr %4, i64 %idxprom.i.i
  %6 = load i32, ptr %arrayidx.i3.i, align 4
  %and.i = and i32 %3, 31
  %shl.i = shl nuw i32 1, %and.i
  %and3.i = and i32 %6, %shl.i
  %cmp4.i.not = icmp eq i32 %and3.i, 0
  br i1 %cmp4.i.not, label %if.then, label %for.inc

if.then:                                          ; preds = %land.lhs.true, %_ZNK6vectorIjLb0EjE4sizeEv.exit.i, %_ZNK8uint_set8containsEj.exit
  %7 = load ptr, ptr %m_context, align 8
  %arrayidx.i10 = getelementptr inbounds [0 x ptr], ptr %m_domain.i, i64 0, i64 %indvars.iv
  %8 = load ptr, ptr %arrayidx.i10, align 8
  %call9 = tail call noundef i64 @_ZN7datalog7context22get_sort_size_estimateEP4sort(ptr noundef nonnull align 8 dereferenceable(3556) %7, ptr noundef %8)
  %conv = uitofp i64 %call9 to float
  %mul = fmul float %res.013, %conv
  br label %for.inc

for.inc:                                          ; preds = %for.body, %_ZNK8uint_set8containsEj.exit, %if.then
  %res.1 = phi float [ %res.013, %_ZNK8uint_set8containsEj.exit ], [ %mul, %if.then ], [ %res.013, %for.body ]
  %indvars.iv.next = add nuw nsw i64 %indvars.iv, 1
  %exitcond.not = icmp eq i64 %indvars.iv.next, %wide.trip.count
  br i1 %exitcond.not, label %for.end, label %for.body, !llvm.loop !14

for.end:                                          ; preds = %for.inc, %entry
  %res.0.lcssa = phi float [ 1.000000e+00, %entry ], [ %res.1, %for.inc ]
  ret float %res.0.lcssa
}